; Function Attrs: mustprogress uwtable
define void @_ZN10open_spiel5tarok17GamePhaseToStringB5cxx11ERKNS0_9GamePhaseE(ptr dead_on_unwind noalias writable sret(%"class.std::__cxx11::basic_string") align 8 %0, ptr noundef nonnull readonly align 4 captures(none) dereferenceable(4) %1) local_unnamed_addr #5 personality ptr @__gxx_personality_v0 {
  %3 = alloca %"class.std::allocator", align 1
  %4 = alloca %"class.std::allocator", align 1
  %5 = alloca %"class.std::allocator", align 1
  %6 = alloca %"class.std::allocator", align 1
  %7 = alloca %"class.std::allocator", align 1
  %8 = alloca %"class.std::allocator", align 1
  %9 = load i32, ptr %1, align 4
  switch i32 %9, label %46 [
    i32 0, label %10
    i32 1, label %16
    i32 2, label %22
    i32 3, label %28
    i32 4, label %34
    i32 5, label %40
  ]

10:                                               ; preds = %2
  call void @_ZNSaIcEC1Ev(ptr noundef nonnull align 1 dereferenceable(1) %3) #30
  %11 = invoke noundef ptr @_ZNSt7__cxx1112basic_stringIcSt11char_traitsIcESaIcEE13_M_local_dataEv(ptr noundef nonnull align 8 dereferenceable(32) %0)
          to label %.noexc unwind label %14

.noexc:                                           ; preds = %10
  invoke void @_ZNSt7__cxx1112basic_stringIcSt11char_traitsIcESaIcEE12_Alloc_hiderC1EPcRKS3_(ptr noundef nonnull align 8 dereferenceable(32) %0, ptr noundef %11, ptr noundef nonnull align 1 dereferenceable(1) %3)
          to label %.noexc4 unwind label %14

.noexc4:                                          ; preds = %.noexc
  invoke void @_ZNSt7__cxx1112basic_stringIcSt11char_traitsIcESaIcEE12_M_constructIPKcEEvT_S8_St20forward_iterator_tag(ptr noundef nonnull align 8 dereferenceable(32) %0, ptr noundef nonnull @.str.40, ptr noundef nonnull getelementptr inbounds nuw (i8, ptr @.str.40, i64 12))
          to label %_ZNSt7__cxx1112basic_stringIcSt11char_traitsIcESaIcEEC2IS3_EEPKcRKS3_.exit unwind label %12

12:                                               ; preds = %.noexc4
  %13 = landingpad { ptr, i32 }
          cleanup
  call void @_ZNSaIcED2Ev(ptr noundef nonnull align 8 dereferenceable(32) %0) #30
  br label %.body

14:                                               ; preds = %.noexc, %10
  %15 = landingpad { ptr, i32 }
          cleanup
  br label %.body

16:                                               ; preds = %2
  call void @_ZNSaIcEC1Ev(ptr noundef nonnull align 1 dereferenceable(1) %4) #30
  %17 = invoke noundef ptr @_ZNSt7__cxx1112basic_stringIcSt11char_traitsIcESaIcEE13_M_local_dataEv(ptr noundef nonnull align 8 dereferenceable(32) %0)
          to label %.noexc5 unwind label %20

.noexc5:                                          ; preds = %16
  invoke void @_ZNSt7__cxx1112basic_stringIcSt11char_traitsIcESaIcEE12_Alloc_hiderC1EPcRKS3_(ptr noundef nonnull align 8 dereferenceable(32) %0, ptr noundef %17, ptr noundef nonnull align 1 dereferenceable(1) %4)
          to label %.noexc6 unwind label %20

.noexc6:                                          ; preds = %.noexc5
  invoke void @_ZNSt7__cxx1112basic_stringIcSt11char_traitsIcESaIcEE12_M_constructIPKcEEvT_S8_St20forward_iterator_tag(ptr noundef nonnull align 8 dereferenceable(32) %0, ptr noundef nonnull @.str.41, ptr noundef nonnull getelementptr inbounds nuw (i8, ptr @.str.41, i64 7))
          to label %_ZNSt7__cxx1112basic_stringIcSt11char_traitsIcESaIcEEC2IS3_EEPKcRKS3_.exit unwind label %18

18:                                               ; preds = %.noexc6
  %19 = landingpad { ptr, i32 }
          cleanup
  call void @_ZNSaIcED2Ev(ptr noundef nonnull align 8 dereferenceable(32) %0) #30
  br label %.body

20:                                               ; preds = %.noexc5, %16
  %21 = landingpad { ptr, i32 }
          cleanup
  br label %.body

22:                                               ; preds = %2
  call void @_ZNSaIcEC1Ev(ptr noundef nonnull align 1 dereferenceable(1) %5) #30
  %23 = invoke noundef ptr @_ZNSt7__cxx1112basic_stringIcSt11char_traitsIcESaIcEE13_M_local_dataEv(ptr noundef nonnull align 8 dereferenceable(32) %0)
          to label %.noexc10 unwind label %26

.noexc10:                                         ; preds = %22
  invoke void @_ZNSt7__cxx1112basic_stringIcSt11char_traitsIcESaIcEE12_Alloc_hiderC1EPcRKS3_(ptr noundef nonnull align 8 dereferenceable(32) %0, ptr noundef %23, ptr noundef nonnull align 1 dereferenceable(1) %5)
          to label %.noexc11 unwind label %26

.noexc11:                                         ; preds = %.noexc10
  invoke void @_ZNSt7__cxx1112basic_stringIcSt11char_traitsIcESaIcEE12_M_constructIPKcEEvT_S8_St20forward_iterator_tag(ptr noundef nonnull align 8 dereferenceable(32) %0, ptr noundef nonnull @.str.42, ptr noundef nonnull getelementptr inbounds nuw (i8, ptr @.str.42, i64 12))
          to label %_ZNSt7__cxx1112basic_stringIcSt11char_traitsIcESaIcEEC2IS3_EEPKcRKS3_.exit unwind label %24

24:                                               ; preds = %.noexc11
  %25 = landingpad { ptr, i32 }
          cleanup
  call void @_ZNSaIcED2Ev(ptr noundef nonnull align 8 dereferenceable(32) %0) #30
  br label %.body

26:                                               ; preds = %.noexc10, %22
  %27 = landingpad { ptr, i32 }
          cleanup
  br label %.body

28:                                               ; preds = %2
  call void @_ZNSaIcEC1Ev(ptr noundef nonnull align 1 dereferenceable(1) %6) #30
  %29 = invoke noundef ptr @_ZNSt7__cxx1112basic_stringIcSt11char_traitsIcESaIcEE13_M_local_dataEv(ptr noundef nonnull align 8 dereferenceable(32) %0)
          to label %.noexc15 unwind label %32

.noexc15:                                         ; preds = %28
  invoke void @_ZNSt7__cxx1112basic_stringIcSt11char_traitsIcESaIcEE12_Alloc_hiderC1EPcRKS3_(ptr noundef nonnull align 8 dereferenceable(32) %0, ptr noundef %29, ptr noundef nonnull align 1 dereferenceable(1) %6)
          to label %.noexc16 unwind label %32

.noexc16:                                         ; preds = %.noexc15
  invoke void @_ZNSt7__cxx1112basic_stringIcSt11char_traitsIcESaIcEE12_M_constructIPKcEEvT_S8_St20forward_iterator_tag(ptr noundef nonnull align 8 dereferenceable(32) %0, ptr noundef nonnull @.str.43, ptr noundef nonnull getelementptr inbounds nuw (i8, ptr @.str.43, i64 14))
          to label %_ZNSt7__cxx1112basic_stringIcSt11char_traitsIcESaIcEEC2IS3_EEPKcRKS3_.exit unwind label %30

30:                                               ; preds = %.noexc16
  %31 = landingpad { ptr, i32 }
          cleanup
  call void @_ZNSaIcED2Ev(ptr noundef nonnull align 8 dereferenceable(32) %0) #30
  br label %.body

32:                                               ; preds = %.noexc15, %28
  %33 = landingpad { ptr, i32 }
          cleanup
  br label %.body

34:                                               ; preds = %2
  call void @_ZNSaIcEC1Ev(ptr noundef nonnull align 1 dereferenceable(1) %7) #30
  %35 = invoke noundef ptr @_ZNSt7__cxx1112basic_stringIcSt11char_traitsIcESaIcEE13_M_local_dataEv(ptr noundef nonnull align 8 dereferenceable(32) %0)
          to label %.noexc20 unwind label %38

.noexc20:                                         ; preds = %34
  invoke void @_ZNSt7__cxx1112basic_stringIcSt11char_traitsIcESaIcEE12_Alloc_hiderC1EPcRKS3_(ptr noundef nonnull align 8 dereferenceable(32) %0, ptr noundef %35, ptr noundef nonnull align 1 dereferenceable(1) %7)
          to label %.noexc21 unwind label %38

.noexc21:                                         ; preds = %.noexc20
  invoke void @_ZNSt7__cxx1112basic_stringIcSt11char_traitsIcESaIcEE12_M_constructIPKcEEvT_S8_St20forward_iterator_tag(ptr noundef nonnull align 8 dereferenceable(32) %0, ptr noundef nonnull @.str.44, ptr noundef nonnull getelementptr inbounds nuw (i8, ptr @.str.44, i64 14))
          to label %_ZNSt7__cxx1112basic_stringIcSt11char_traitsIcESaIcEEC2IS3_EEPKcRKS3_.exit unwind label %36

36:                                               ; preds = %.noexc21
  %37 = landingpad { ptr, i32 }
          cleanup
  call void @_ZNSaIcED2Ev(ptr noundef nonnull align 8 dereferenceable(32) %0) #30
  br label %.body

38:                                               ; preds = %.noexc20, %34
  %39 = landingpad { ptr, i32 }
          cleanup
  br label %.body

40:                                               ; preds = %2
  call void @_ZNSaIcEC1Ev(ptr noundef nonnull align 1 dereferenceable(1) %8) #30
  %41 = invoke noundef ptr @_ZNSt7__cxx1112basic_stringIcSt11char_traitsIcESaIcEE13_M_local_dataEv(ptr noundef nonnull align 8 dereferenceable(32) %0)
          to label %.noexc25 unwind label %44

.noexc25:                                         ; preds = %40
  invoke void @_ZNSt7__cxx1112basic_stringIcSt11char_traitsIcESaIcEE12_Alloc_hiderC1EPcRKS3_(ptr noundef nonnull align 8 dereferenceable(32) %0, ptr noundef %41, ptr noundef nonnull align 1 dereferenceable(1) %8)
          to label %.noexc26 unwind label %44

.noexc26:                                         ; preds = %.noexc25
  invoke void @_ZNSt7__cxx1112basic_stringIcSt11char_traitsIcESaIcEE12_M_constructIPKcEEvT_S8_St20forward_iterator_tag(ptr noundef nonnull align 8 dereferenceable(32) %0, ptr noundef nonnull @.str.45, ptr noundef nonnull getelementptr inbounds nuw (i8, ptr @.str.45, i64 8))
          to label %_ZNSt7__cxx1112basic_stringIcSt11char_traitsIcESaIcEEC2IS3_EEPKcRKS3_.exit unwind label %42

42:                                               ; preds = %.noexc26
  %43 = landingpad { ptr, i32 }
          cleanup
  call void @_ZNSaIcED2Ev(ptr noundef nonnull align 8 dereferenceable(32) %0) #30
  br label %.body

44:                                               ; preds = %.noexc25, %40
  %45 = landingpad { ptr, i32 }
          cleanup
  br label %.body

46:                                               ; preds = %2
  tail call void @llvm.trap()
  unreachable

_ZNSt7__cxx1112basic_stringIcSt11char_traitsIcESaIcEEC2IS3_EEPKcRKS3_.exit: ; preds = %.noexc26, %.noexc21, %.noexc16, %.noexc11, %.noexc6, %.noexc4
  %.sink = phi ptr [ %3, %.noexc4 ], [ %4, %.noexc6 ], [ %5, %.noexc11 ], [ %6, %.noexc16 ], [ %7, %.noexc21 ], [ %8, %.noexc26 ]
  call void @_ZNSaIcED1Ev(ptr noundef nonnull align 1 dereferenceable(1) %.sink) #30
  ret void

.body:                                            ; preds = %44, %42, %38, %36, %32, %30, %26, %24, %20, %18, %14, %12
  %.sink30 = phi ptr [ %3, %12 ], [ %3, %14 ], [ %4, %18 ], [ %4, %20 ], [ %5, %24 ], [ %5, %26 ], [ %6, %30 ], [ %6, %32 ], [ %7, %36 ], [ %7, %38 ], [ %8, %42 ], [ %8, %44 ]
  %.pn = phi { ptr, i32 } [ %13, %12 ], [ %15, %14 ], [ %19, %18 ], [ %21, %20 ], [ %25, %24 ], [ %27, %26 ], [ %31, %30 ], [ %33, %32 ], [ %37, %36 ], [ %39, %38 ], [ %43, %42 ], [ %45, %44 ]
  call void @_ZNSaIcED1Ev(ptr noundef nonnull align 1 dereferenceable(1) %.sink30) #30
  resume { ptr, i32 } %.pn
}